target datalayout = "e-m:e-p270:32:32-p271:32:32-p272:64:64-i64:64-i128:128-f80:128-n8:16:32:64-S128"
target triple = "x86_64-pc-linux-gnu"

%struct.Py_buffer = type { ptr, ptr, i64, i64, i32, i32, ptr, ptr, ptr, ptr, ptr }

@.str.10 = private unnamed_addr constant [6 x i8] c"crc32\00", align 1

; Function Attrs: nounwind uwtable
define internal i32 @binascii_crc32_impl(ptr noundef %0, ptr noundef %1, i32 noundef %2) #0 {
  %4 = alloca ptr, align 8
  %5 = alloca ptr, align 8
  %6 = alloca i32, align 4
  %7 = alloca ptr, align 8
  %8 = alloca i64, align 8
  %9 = alloca ptr, align 8
  store ptr %0, ptr %4, align 8, !tbaa !3
  store ptr %1, ptr %5, align 8, !tbaa !8
  store i32 %2, ptr %6, align 4, !tbaa !13
  %10 = load ptr, ptr %5, align 8, !tbaa !8
  %11 = getelementptr inbounds nuw %struct.Py_buffer, ptr %10, i32 0, i32 2
  %12 = load i64, ptr %11, align 8, !tbaa !25
  %13 = icmp sgt i64 %12, 5120
  br i1 %13, label %14, label %44

14:                                               ; preds = %3
  call void @llvm.lifetime.start.p0(i64 8, ptr %7) #7
  %15 = load ptr, ptr %5, align 8, !tbaa !8
  %16 = getelementptr inbounds nuw %struct.Py_buffer, ptr %15, i32 0, i32 0
  %17 = load ptr, ptr %16, align 8, !tbaa !24
  store ptr %17, ptr %7, align 8, !tbaa !35
  call void @llvm.lifetime.start.p0(i64 8, ptr %8) #7
  %18 = load ptr, ptr %5, align 8, !tbaa !8
  %19 = getelementptr inbounds nuw %struct.Py_buffer, ptr %18, i32 0, i32 2
  %20 = load i64, ptr %19, align 8, !tbaa !25
  store i64 %20, ptr %8, align 8, !tbaa !23
  call void @llvm.lifetime.start.p0(i64 8, ptr %9) #7
  %21 = call ptr @PyEval_SaveThread()
  store ptr %21, ptr %9, align 8, !tbaa !55
  br label %22

22:                                               ; preds = %25, %14
  %23 = load i64, ptr %8, align 8, !tbaa !23
  %24 = icmp ugt i64 %23, 1073741824
  br i1 %24, label %25, label %35

25:                                               ; preds = %22
  %26 = load i32, ptr %6, align 4, !tbaa !13
  %27 = zext i32 %26 to i64
  %28 = load ptr, ptr %7, align 8, !tbaa !35
  %29 = call i64 @crc32(i64 noundef %27, ptr noundef %28, i32 noundef 1073741824)
  %30 = trunc i64 %29 to i32
  store i32 %30, ptr %6, align 4, !tbaa !13
  %31 = load ptr, ptr %7, align 8, !tbaa !35
  %32 = getelementptr i8, ptr %31, i64 1073741824
  store ptr %32, ptr %7, align 8, !tbaa !35
  %33 = load i64, ptr %8, align 8, !tbaa !23
  %34 = sub i64 %33, 1073741824
  store i64 %34, ptr %8, align 8, !tbaa !23
  br label %22, !llvm.loop !57

35:                                               ; preds = %22
  %36 = load i32, ptr %6, align 4, !tbaa !13
  %37 = zext i32 %36 to i64
  %38 = load ptr, ptr %7, align 8, !tbaa !35
  %39 = load i64, ptr %8, align 8, !tbaa !23
  %40 = trunc i64 %39 to i32
  %41 = call i64 @crc32(i64 noundef %37, ptr noundef %38, i32 noundef %40)
  %42 = trunc i64 %41 to i32
  store i32 %42, ptr %6, align 4, !tbaa !13
  %43 = load ptr, ptr %9, align 8, !tbaa !55
  call void @PyEval_RestoreThread(ptr noundef %43)
  call void @llvm.lifetime.end.p0(i64 8, ptr %9) #7
  call void @llvm.lifetime.end.p0(i64 8, ptr %8) #7
  call void @llvm.lifetime.end.p0(i64 8, ptr %7) #7
  br label %56

44:                                               ; preds = %3
  %45 = load i32, ptr %6, align 4, !tbaa !13
  %46 = zext i32 %45 to i64
  %47 = load ptr, ptr %5, align 8, !tbaa !8
  %48 = getelementptr inbounds nuw %struct.Py_buffer, ptr %47, i32 0, i32 0
  %49 = load ptr, ptr %48, align 8, !tbaa !24
  %50 = load ptr, ptr %5, align 8, !tbaa !8
  %51 = getelementptr inbounds nuw %struct.Py_buffer, ptr %50, i32 0, i32 2
  %52 = load i64, ptr %51, align 8, !tbaa !25
  %53 = trunc i64 %52 to i32
  %54 = call i64 @crc32(i64 noundef %46, ptr noundef %49, i32 noundef %53)
  %55 = trunc i64 %54 to i32
  store i32 %55, ptr %6, align 4, !tbaa !13
  br label %56

56:                                               ; preds = %44, %35
  %57 = load i32, ptr %6, align 4, !tbaa !13
  %58 = and i32 %57, -1
  ret i32 %58
}

; Function Attrs: nounwind uwtable
define internal ptr @binascii_crc32(ptr noundef %0, ptr noundef %1, i64 noundef %2) #0 {
  %4 = alloca ptr, align 8
  %5 = alloca ptr, align 8
  %6 = alloca i64, align 8
  %7 = alloca ptr, align 8
  %8 = alloca %struct.Py_buffer, align 8
  %9 = alloca i32, align 4
  %10 = alloca i32, align 4
  store ptr %0, ptr %4, align 8, !tbaa !3
  store ptr %1, ptr %5, align 8, !tbaa !16
  store i64 %2, ptr %6, align 8, !tbaa !23
  call void @llvm.lifetime.start.p0(i64 8, ptr %7) #7
  store ptr null, ptr %7, align 8, !tbaa !3
  call void @llvm.lifetime.start.p0(i64 80, ptr %8) #7
  call void @llvm.memset.p0.i64(ptr align 8 %8, i8 0, i64 80, i1 false)
  call void @llvm.lifetime.start.p0(i64 4, ptr %9) #7
  store i32 0, ptr %9, align 4, !tbaa !13
  call void @llvm.lifetime.start.p0(i64 4, ptr %10) #7
  %11 = load i64, ptr %6, align 8, !tbaa !23
  %12 = icmp sle i64 1, %11
  br i1 %12, label %13, label %16

13:                                               ; preds = %3
  %14 = load i64, ptr %6, align 8, !tbaa !23
  %15 = icmp sle i64 %14, 2
  br i1 %15, label %21, label %16

16:                                               ; preds = %13, %3
  %17 = load i64, ptr %6, align 8, !tbaa !23
  %18 = call i32 @_PyArg_CheckPositional(ptr noundef @.str.10, i64 noundef %17, i64 noundef 1, i64 noundef 2)
  %19 = icmp ne i32 %18, 0
  br i1 %19, label %21, label %20

20:                                               ; preds = %16
  br label %59

21:                                               ; preds = %16, %13
  %22 = load ptr, ptr %5, align 8, !tbaa !16
  %23 = getelementptr ptr, ptr %22, i64 0
  %24 = load ptr, ptr %23, align 8, !tbaa !3
  %25 = call i32 @PyObject_GetBuffer(ptr noundef %24, ptr noundef %8, i32 noundef 0)
  %26 = icmp ne i32 %25, 0
  br i1 %26, label %27, label %28

27:                                               ; preds = %21
  br label %59

28:                                               ; preds = %21
  %29 = load i64, ptr %6, align 8, !tbaa !23
  %30 = icmp slt i64 %29, 2
  br i1 %30, label %31, label %32

31:                                               ; preds = %28
  br label %45

32:                                               ; preds = %28
  %33 = load ptr, ptr %5, align 8, !tbaa !16
  %34 = getelementptr ptr, ptr %33, i64 1
  %35 = load ptr, ptr %34, align 8, !tbaa !3
  %36 = call i64 @PyLong_AsUnsignedLongMask(ptr noundef %35)
  %37 = trunc i64 %36 to i32
  store i32 %37, ptr %9, align 4, !tbaa !13
  %38 = load i32, ptr %9, align 4, !tbaa !13
  %39 = icmp eq i32 %38, -1
  br i1 %39, label %40, label %44

40:                                               ; preds = %32
  %41 = call ptr @PyErr_Occurred()
  %42 = icmp ne ptr %41, null
  br i1 %42, label %43, label %44

43:                                               ; preds = %40
  br label %59

44:                                               ; preds = %40, %32
  br label %45

45:                                               ; preds = %44, %31
  %46 = load ptr, ptr %4, align 8, !tbaa !3
  %47 = load i32, ptr %9, align 4, !tbaa !13
  %48 = call i32 @binascii_crc32_impl(ptr noundef %46, ptr noundef %8, i32 noundef %47)
  store i32 %48, ptr %10, align 4, !tbaa !13
  %49 = load i32, ptr %10, align 4, !tbaa !13
  %50 = icmp eq i32 %49, -1
  br i1 %50, label %51, label %55

51:                                               ; preds = %45
  %52 = call ptr @PyErr_Occurred()
  %53 = icmp ne ptr %52, null
  br i1 %53, label %54, label %55

54:                                               ; preds = %51
  br label %59

55:                                               ; preds = %51, %45
  %56 = load i32, ptr %10, align 4, !tbaa !13
  %57 = zext i32 %56 to i64
  %58 = call ptr @PyLong_FromUnsignedLong(i64 noundef %57)
  store ptr %58, ptr %7, align 8, !tbaa !3
  br label %59

59:                                               ; preds = %55, %54, %43, %27, %20
  %60 = getelementptr inbounds nuw %struct.Py_buffer, ptr %8, i32 0, i32 1
  %61 = load ptr, ptr %60, align 8, !tbaa !18
  %62 = icmp ne ptr %61, null
  br i1 %62, label %63, label %64

63:                                               ; preds = %59
  call void @PyBuffer_Release(ptr noundef %8)
  br label %64

64:                                               ; preds = %63, %59
  %65 = load ptr, ptr %7, align 8, !tbaa !3
  call void @llvm.lifetime.end.p0(i64 4, ptr %10) #7
  call void @llvm.lifetime.end.p0(i64 4, ptr %9) #7
  call void @llvm.lifetime.end.p0(i64 80, ptr %8) #7
  call void @llvm.lifetime.end.p0(i64 8, ptr %7) #7
  ret ptr %65
}